; Function Attrs: mustprogress nounwind uwtable
define hidden void @_ZN27ShenandoahMonitoringSupport28handle_force_counters_updateEv(ptr noundef nonnull align 8 dereferenceable(336) %0) local_unnamed_addr #0 align 2 {
  %2 = getelementptr inbounds i8, ptr %0, i64 257
  %3 = load volatile i8, ptr %2, align 1
  tail call void asm sideeffect "", "~{memory},~{dirflag},~{fpsr},~{flags}"() #6, !srcloc !7
  %4 = icmp eq i8 %3, 1
  br i1 %4, label %5, label %_ZN36ShenandoahPeriodicCountersUpdateTask28handle_force_counters_updateEv.exit

5:                                                ; preds = %1
  %6 = getelementptr inbounds i8, ptr %0, i64 128
  %7 = tail call i8 asm sideeffect "xchgb ($2),$0", "=q,0,r,~{memory},~{dirflag},~{fpsr},~{flags}"(i8 0, ptr nonnull %6) #6, !srcloc !6
  %8 = getelementptr inbounds i8, ptr %0, i64 328
  %9 = load ptr, ptr %8, align 8
  tail call void @_ZN13MemoryService18track_memory_usageEv() #6
  %10 = load i8, ptr @UsePerfData, align 1
  %11 = trunc i8 %10 to i1
  br i1 %11, label %12, label %_ZN36ShenandoahPeriodicCountersUpdateTask28handle_force_counters_updateEv.exit

12:                                               ; preds = %5
  %13 = load ptr, ptr @_ZN8Universe14_collectedHeapE, align 8
  %14 = load ptr, ptr %13, align 8
  %15 = getelementptr inbounds i8, ptr %14, i64 96
  %16 = load ptr, ptr %15, align 8
  %17 = tail call noundef i64 %16(ptr noundef nonnull align 8 dereferenceable(2657) %13) #6
  %18 = load ptr, ptr %13, align 8
  %19 = getelementptr inbounds i8, ptr %18, i64 120
  %20 = load ptr, ptr %19, align 8
  %21 = tail call noundef i64 %20(ptr noundef nonnull align 8 dereferenceable(2657) %13) #6
  %22 = getelementptr inbounds i8, ptr %9, i64 24
  %23 = load ptr, ptr %22, align 8
  %24 = load ptr, ptr %23, align 8
  %25 = load ptr, ptr %24, align 8
  tail call void %25(ptr noundef nonnull align 8 dereferenceable(32) %23) #6
  %26 = getelementptr inbounds i8, ptr %9, i64 32
  %27 = load ptr, ptr %26, align 8
  tail call void @_ZN14HSpaceCounters10update_allEmm(ptr noundef nonnull align 8 dereferenceable(24) %27, i64 noundef %21, i64 noundef %17) #6
  %28 = getelementptr inbounds i8, ptr %9, i64 40
  %29 = load ptr, ptr %28, align 8
  tail call void @_ZN28ShenandoahHeapRegionCounters6updateEv(ptr noundef nonnull align 8 dereferenceable(40) %29) #6
  tail call void @_ZN17MetaspaceCounters27update_performance_countersEv() #6
  br label %_ZN36ShenandoahPeriodicCountersUpdateTask28handle_force_counters_updateEv.exit

_ZN36ShenandoahPeriodicCountersUpdateTask28handle_force_counters_updateEv.exit: ; preds = %1, %5, %12
  ret void
}